; Function Attrs: mustprogress nounwind uwtable
define dso_local void @_ZN23cmCPackArchiveGeneratorD0Ev(ptr noundef nonnull align 8 dereferenceable(432) %0) unnamed_addr #6 align 2 {
  store ptr getelementptr inbounds ({ [32 x ptr] }, ptr @_ZTV23cmCPackArchiveGenerator, i64 0, i32 0, i64 2), ptr %0, align 8
  %2 = getelementptr inbounds i8, ptr %0, i64 400
  tail call void @_ZNSt7__cxx1112basic_stringIcSt11char_traitsIcESaIcEED1Ev(ptr noundef nonnull align 8 dereferenceable(32) %2) #20
  %3 = getelementptr inbounds i8, ptr %0, i64 368
  tail call void @_ZNSt7__cxx1112basic_stringIcSt11char_traitsIcESaIcEED1Ev(ptr noundef nonnull align 8 dereferenceable(32) %3) #20
  tail call void @_ZN16cmCPackGeneratorD2Ev(ptr noundef nonnull align 8 dereferenceable(360) %0) #20
  tail call void @_ZdlPv(ptr noundef nonnull %0) #21
  ret void
}